target datalayout = "e-m:e-p270:32:32-p271:32:32-p272:64:64-i64:64-i128:128-f80:128-n8:16:32:64-S128"
target triple = "x86_64-unknown-linux-gnu"

%"class.icu_75::RuleBasedCollator" = type <{ %"class.icu_75::Collator", ptr, ptr, ptr, ptr, %"class.icu_75::Locale", i32, i8, [3 x i8] }>
%"class.icu_75::Collator" = type { %"class.icu_75::UObject" }
%"class.icu_75::UObject" = type { ptr }
%"class.icu_75::Locale" = type <{ %"class.icu_75::UObject", [12 x i8], [6 x i8], [4 x i8], [2 x i8], i32, [4 x i8], ptr, [157 x i8], [3 x i8], ptr, i8, [7 x i8] }>

@_ZTVN6icu_7517RuleBasedCollatorE = external unnamed_addr constant { [43 x ptr] }, align 8
@.str = private unnamed_addr constant [1 x i8] zeroinitializer, align 1

; Function Attrs: mustprogress uwtable
define void @_ZN6icu_7517RuleBasedCollatorC2ERKNS_13UnicodeStringE18UColAttributeValueR10UErrorCode(ptr noundef nonnull align 8 dereferenceable(272) %this, ptr noundef nonnull align 8 dereferenceable(64) %rules, i32 noundef %decompositionMode, ptr noundef nonnull align 4 dereferenceable(4) %errorCode) unnamed_addr #0 align 2 personality ptr @__gxx_personality_v0 {
entry:
  %this.addr = alloca ptr, align 8
  %rules.addr = alloca ptr, align 8
  %decompositionMode.addr = alloca i32, align 4
  %errorCode.addr = alloca ptr, align 8
  %exn.slot = alloca ptr, align 8
  %ehselector.slot = alloca i32, align 4
  store ptr %this, ptr %this.addr, align 8
  store ptr %rules, ptr %rules.addr, align 8
  store i32 %decompositionMode, ptr %decompositionMode.addr, align 4
  store ptr %errorCode, ptr %errorCode.addr, align 8
  %this1 = load ptr, ptr %this.addr, align 8
  call void @_ZN6icu_758CollatorC2Ev(ptr noundef nonnull align 8 dereferenceable(8) %this1)
  store ptr getelementptr inbounds ({ [43 x ptr] }, ptr @_ZTVN6icu_7517RuleBasedCollatorE, i32 0, i32 0, i32 2), ptr %this1, align 8
  %data = getelementptr inbounds %"class.icu_75::RuleBasedCollator", ptr %this1, i32 0, i32 1
  store ptr null, ptr %data, align 8
  %settings = getelementptr inbounds %"class.icu_75::RuleBasedCollator", ptr %this1, i32 0, i32 2
  store ptr null, ptr %settings, align 8
  %tailoring = getelementptr inbounds %"class.icu_75::RuleBasedCollator", ptr %this1, i32 0, i32 3
  store ptr null, ptr %tailoring, align 8
  %cacheEntry = getelementptr inbounds %"class.icu_75::RuleBasedCollator", ptr %this1, i32 0, i32 4
  store ptr null, ptr %cacheEntry, align 8
  %validLocale = getelementptr inbounds %"class.icu_75::RuleBasedCollator", ptr %this1, i32 0, i32 5
  invoke void @_ZN6icu_756LocaleC1EPKcS2_S2_S2_(ptr noundef nonnull align 8 dereferenceable(217) %validLocale, ptr noundef @.str, ptr noundef null, ptr noundef null, ptr noundef null)
          to label %invoke.cont unwind label %lpad

invoke.cont:                                      ; preds = %entry
  %explicitlySetAttributes = getelementptr inbounds %"class.icu_75::RuleBasedCollator", ptr %this1, i32 0, i32 6
  store i32 0, ptr %explicitlySetAttributes, align 8
  %actualLocaleIsSameAsValid = getelementptr inbounds %"class.icu_75::RuleBasedCollator", ptr %this1, i32 0, i32 7
  store i8 0, ptr %actualLocaleIsSameAsValid, align 4
  %0 = load ptr, ptr %rules.addr, align 8
  %1 = load i32, ptr %decompositionMode.addr, align 4
  %2 = load ptr, ptr %errorCode.addr, align 8
  invoke void @_ZN6icu_7517RuleBasedCollator22internalBuildTailoringERKNS_13UnicodeStringEi18UColAttributeValueP11UParseErrorPS1_R10UErrorCode(ptr noundef nonnull align 8 dereferenceable(272) %this1, ptr noundef nonnull align 8 dereferenceable(64) %0, i32 noundef -1, i32 noundef %1, ptr noundef null, ptr noundef null, ptr noundef nonnull align 4 dereferenceable(4) %2)
          to label %invoke.cont3 unwind label %lpad2

invoke.cont3:                                     ; preds = %invoke.cont
  ret void

lpad:                                             ; preds = %entry
  %3 = landingpad { ptr, i32 }
          cleanup
  %4 = extractvalue { ptr, i32 } %3, 0
  store ptr %4, ptr %exn.slot, align 8
  %5 = extractvalue { ptr, i32 } %3, 1
  store i32 %5, ptr %ehselector.slot, align 4
  br label %ehcleanup

lpad2:                                            ; preds = %invoke.cont
  %6 = landingpad { ptr, i32 }
          cleanup
  %7 = extractvalue { ptr, i32 } %6, 0
  store ptr %7, ptr %exn.slot, align 8
  %8 = extractvalue { ptr, i32 } %6, 1
  store i32 %8, ptr %ehselector.slot, align 4
  call void @_ZN6icu_756LocaleD1Ev(ptr noundef nonnull align 8 dereferenceable(217) %validLocale) #6
  br label %ehcleanup

ehcleanup:                                        ; preds = %lpad2, %lpad
  call void @_ZN6icu_758CollatorD2Ev(ptr noundef nonnull align 8 dereferenceable(8) %this1) #6
  br label %eh.resume

eh.resume:                                        ; preds = %ehcleanup
  %exn = load ptr, ptr %exn.slot, align 8
  %sel = load i32, ptr %ehselector.slot, align 4
  %lpad.val = insertvalue { ptr, i32 } poison, ptr %exn, 0
  %lpad.val4 = insertvalue { ptr, i32 } %lpad.val, i32 %sel, 1
  resume { ptr, i32 } %lpad.val4
}