; Function Attrs: mustprogress uwtable
define void @_ZN6icu_7517RuleBasedCollatorC2ERKNS_13UnicodeStringE18UColAttributeValueR10UErrorCode(ptr noundef nonnull align 8 dereferenceable(272) %this, ptr noundef nonnull align 8 dereferenceable(64) %rules, i32 noundef %decompositionMode, ptr noundef nonnull align 4 dereferenceable(4) %errorCode) unnamed_addr #0 align 2 personality ptr @__gxx_personality_v0 {
entry:
  tail call void @_ZN6icu_758CollatorC2Ev(ptr noundef nonnull align 8 dereferenceable(8) %this)
  store ptr getelementptr inbounds ({ [43 x ptr] }, ptr @_ZTVN6icu_7517RuleBasedCollatorE, i64 0, i32 0, i64 2), ptr %this, align 8
  %data = getelementptr inbounds i8, ptr %this, i64 8
  %validLocale = getelementptr inbounds i8, ptr %this, i64 40
  tail call void @llvm.memset.p0.i64(ptr noundef nonnull align 8 dereferenceable(32) %data, i8 0, i64 32, i1 false)
  invoke void @_ZN6icu_756LocaleC1EPKcS2_S2_S2_(ptr noundef nonnull align 8 dereferenceable(217) %validLocale, ptr noundef nonnull @.str, ptr noundef null, ptr noundef null, ptr noundef null)
          to label %invoke.cont unwind label %lpad

invoke.cont:                                      ; preds = %entry
  %explicitlySetAttributes = getelementptr inbounds i8, ptr %this, i64 264
  store i32 0, ptr %explicitlySetAttributes, align 8
  %actualLocaleIsSameAsValid = getelementptr inbounds i8, ptr %this, i64 268
  store i8 0, ptr %actualLocaleIsSameAsValid, align 4
  invoke void @_ZN6icu_7517RuleBasedCollator22internalBuildTailoringERKNS_13UnicodeStringEi18UColAttributeValueP11UParseErrorPS1_R10UErrorCode(ptr noundef nonnull align 8 dereferenceable(272) %this, ptr noundef nonnull align 8 dereferenceable(64) %rules, i32 noundef -1, i32 noundef %decompositionMode, ptr noundef null, ptr noundef null, ptr noundef nonnull align 4 dereferenceable(4) %errorCode)
          to label %invoke.cont3 unwind label %lpad2

invoke.cont3:                                     ; preds = %invoke.cont
  ret void

lpad:                                             ; preds = %entry
  %0 = landingpad { ptr, i32 }
          cleanup
  br label %ehcleanup

lpad2:                                            ; preds = %invoke.cont
  %1 = landingpad { ptr, i32 }
          cleanup
  tail call void @_ZN6icu_756LocaleD1Ev(ptr noundef nonnull align 8 dereferenceable(217) %validLocale) #12
  br label %ehcleanup

ehcleanup:                                        ; preds = %lpad2, %lpad
  %.pn = phi { ptr, i32 } [ %1, %lpad2 ], [ %0, %lpad ]
  tail call void @_ZN6icu_758CollatorD2Ev(ptr noundef nonnull align 8 dereferenceable(8) %this) #12
  resume { ptr, i32 } %.pn
}